target datalayout = "e-m:e-p270:32:32-p271:32:32-p272:64:64-i64:64-i128:128-f80:128-n8:16:32:64-S128"
target triple = "x86_64-pc-linux-gnu"

%"struct.cvc5::internal::Minisat::Solver::WatcherDeleted" = type { ptr }
%"struct.cvc5::internal::Minisat::Solver::VarOrderLt" = type { ptr }
%"class.cvc5::internal::Minisat::Solver" = type <{ %"class.cvc5::internal::EnvObj", ptr, ptr, i32, i32, i32, [4 x i8], %"class.std::unique_ptr", i8, [7 x i8], %"class.cvc5::internal::Minisat::vec", %"class.cvc5::internal::Minisat::vec.2", i8, i8, [6 x i8], %"class.cvc5::internal::Minisat::vec.3", %"class.cvc5::internal::Minisat::vec.4", i32, [4 x i8], double, double, double, double, i8, [3 x i8], i32, i32, i8, i8, [2 x i8], double, i32, [4 x i8], double, double, double, i32, [4 x i8], double, i64, i64, i64, i64, i64, i64, i64, i64, i64, i64, i64, i64, i8, [7 x i8], %"class.cvc5::internal::Minisat::vec.5", %"class.cvc5::internal::Minisat::vec.5", double, %"class.cvc5::internal::Minisat::vec.6", double, %"class.cvc5::internal::Minisat::OccLists", %"class.cvc5::internal::Minisat::vec.3", %"class.cvc5::internal::Minisat::vec.9", %"class.cvc5::internal::Minisat::vec.8", %"class.cvc5::internal::Minisat::vec.8", %"class.cvc5::internal::Minisat::vec.9", %"class.cvc5::internal::Minisat::vec.4", %"class.cvc5::internal::Minisat::vec.9", %"class.cvc5::internal::Minisat::vec.2", %"class.cvc5::internal::Minisat::vec.10", i32, i32, i64, %"class.cvc5::internal::Minisat::vec.4", %"class.cvc5::internal::Minisat::Heap", double, i8, [7 x i8], %"class.cvc5::internal::Minisat::ClauseAllocator", %"class.cvc5::internal::Minisat::vec.2", %"class.cvc5::internal::Minisat::vec.8", %"class.cvc5::internal::Minisat::vec.4", %"class.cvc5::internal::Minisat::vec.4", %"class.cvc5::internal::Minisat::vec.4", double, double, i32, [4 x i8], i64, i64, i8, i8, [6 x i8] }>
%"class.cvc5::internal::EnvObj" = type { ptr, ptr }
%"class.std::unique_ptr" = type { %"struct.std::__uniq_ptr_data" }
%"struct.std::__uniq_ptr_data" = type { %"class.std::__uniq_ptr_impl" }
%"class.std::__uniq_ptr_impl" = type { %"class.std::tuple" }
%"class.std::tuple" = type { %"struct.std::_Tuple_impl" }
%"struct.std::_Tuple_impl" = type { %"struct.std::_Head_base.1" }
%"struct.std::_Head_base.1" = type { ptr }
%"class.cvc5::internal::Minisat::vec" = type { ptr, i32, i32 }
%"class.cvc5::internal::Minisat::vec.5" = type { ptr, i32, i32 }
%"class.cvc5::internal::Minisat::vec.6" = type { ptr, i32, i32 }
%"class.cvc5::internal::Minisat::OccLists" = type { %"class.cvc5::internal::Minisat::vec.7", %"class.cvc5::internal::Minisat::vec.8", %"class.cvc5::internal::Minisat::vec.4", %"struct.cvc5::internal::Minisat::Solver::WatcherDeleted" }
%"class.cvc5::internal::Minisat::vec.7" = type { ptr, i32, i32 }
%"class.cvc5::internal::Minisat::vec.3" = type { ptr, i32, i32 }
%"class.cvc5::internal::Minisat::vec.9" = type { ptr, i32, i32 }
%"class.cvc5::internal::Minisat::vec.10" = type { ptr, i32, i32 }
%"class.cvc5::internal::Minisat::Heap" = type { %"struct.cvc5::internal::Minisat::Solver::VarOrderLt", %"class.cvc5::internal::Minisat::vec.9", %"class.cvc5::internal::Minisat::vec.9" }
%"class.cvc5::internal::Minisat::ClauseAllocator" = type { %"class.cvc5::internal::Minisat::RegionAllocator.base", i8, [3 x i8] }
%"class.cvc5::internal::Minisat::RegionAllocator.base" = type <{ ptr, i32, i32, i32 }>
%"class.cvc5::internal::Minisat::vec.2" = type { ptr, i32, i32 }
%"class.cvc5::internal::Minisat::vec.8" = type { ptr, i32, i32 }
%"class.cvc5::internal::Minisat::vec.4" = type { ptr, i32, i32 }
%"class.cvc5::internal::Minisat::RegionAllocator" = type <{ ptr, i32, i32, i32, [4 x i8] }>

@.str.119 = private unnamed_addr constant [65 x i8] c"|  Garbage collection:   %12d bytes => %12d bytes             |\0A\00", align 1

; Function Attrs: mustprogress nounwind uwtable
define linkonce_odr hidden void @_ZN4cvc58internal7Minisat15RegionAllocatorIjE6moveToERS3_(ptr noundef nonnull align 8 dereferenceable(20) %0, ptr noundef nonnull align 8 dereferenceable(20) %1) #4 comdat align 2 {
  %3 = alloca ptr, align 8
  %4 = alloca ptr, align 8
  store ptr %0, ptr %3, align 8, !tbaa !219
  store ptr %1, ptr %4, align 8, !tbaa !219
  %5 = load ptr, ptr %3, align 8
  %6 = load ptr, ptr %4, align 8, !tbaa !219
  %7 = getelementptr inbounds nuw %"class.cvc5::internal::Minisat::RegionAllocator", ptr %6, i32 0, i32 0
  %8 = load ptr, ptr %7, align 8, !tbaa !221
  %9 = icmp ne ptr %8, null
  br i1 %9, label %10, label %14

10:                                               ; preds = %2
  %11 = load ptr, ptr %4, align 8, !tbaa !219
  %12 = getelementptr inbounds nuw %"class.cvc5::internal::Minisat::RegionAllocator", ptr %11, i32 0, i32 0
  %13 = load ptr, ptr %12, align 8, !tbaa !221
  call void @free(ptr noundef %13) #3
  br label %14

14:                                               ; preds = %10, %2
  %15 = getelementptr inbounds nuw %"class.cvc5::internal::Minisat::RegionAllocator", ptr %5, i32 0, i32 0
  %16 = load ptr, ptr %15, align 8, !tbaa !221
  %17 = load ptr, ptr %4, align 8, !tbaa !219
  %18 = getelementptr inbounds nuw %"class.cvc5::internal::Minisat::RegionAllocator", ptr %17, i32 0, i32 0
  store ptr %16, ptr %18, align 8, !tbaa !221
  %19 = getelementptr inbounds nuw %"class.cvc5::internal::Minisat::RegionAllocator", ptr %5, i32 0, i32 1
  %20 = load i32, ptr %19, align 8, !tbaa !653
  %21 = load ptr, ptr %4, align 8, !tbaa !219
  %22 = getelementptr inbounds nuw %"class.cvc5::internal::Minisat::RegionAllocator", ptr %21, i32 0, i32 1
  store i32 %20, ptr %22, align 8, !tbaa !653
  %23 = getelementptr inbounds nuw %"class.cvc5::internal::Minisat::RegionAllocator", ptr %5, i32 0, i32 2
  %24 = load i32, ptr %23, align 4, !tbaa !714
  %25 = load ptr, ptr %4, align 8, !tbaa !219
  %26 = getelementptr inbounds nuw %"class.cvc5::internal::Minisat::RegionAllocator", ptr %25, i32 0, i32 2
  store i32 %24, ptr %26, align 4, !tbaa !714
  %27 = getelementptr inbounds nuw %"class.cvc5::internal::Minisat::RegionAllocator", ptr %5, i32 0, i32 3
  %28 = load i32, ptr %27, align 8, !tbaa !654
  %29 = load ptr, ptr %4, align 8, !tbaa !219
  %30 = getelementptr inbounds nuw %"class.cvc5::internal::Minisat::RegionAllocator", ptr %29, i32 0, i32 3
  store i32 %28, ptr %30, align 8, !tbaa !654
  %31 = getelementptr inbounds nuw %"class.cvc5::internal::Minisat::RegionAllocator", ptr %5, i32 0, i32 0
  store ptr null, ptr %31, align 8, !tbaa !221
  %32 = getelementptr inbounds nuw %"class.cvc5::internal::Minisat::RegionAllocator", ptr %5, i32 0, i32 3
  store i32 0, ptr %32, align 8, !tbaa !654
  %33 = getelementptr inbounds nuw %"class.cvc5::internal::Minisat::RegionAllocator", ptr %5, i32 0, i32 2
  store i32 0, ptr %33, align 4, !tbaa !714
  %34 = getelementptr inbounds nuw %"class.cvc5::internal::Minisat::RegionAllocator", ptr %5, i32 0, i32 1
  store i32 0, ptr %34, align 8, !tbaa !653
  ret void
}

; Function Attrs: mustprogress uwtable
define linkonce_odr hidden void @_ZN4cvc58internal7Minisat15RegionAllocatorIjEC2Ej(ptr noundef nonnull align 8 dereferenceable(20) %0, i32 noundef %1) unnamed_addr #6 comdat align 2 {
  %3 = alloca ptr, align 8
  %4 = alloca i32, align 4
  store ptr %0, ptr %3, align 8, !tbaa !219
  store i32 %1, ptr %4, align 4, !tbaa !37
  %5 = load ptr, ptr %3, align 8
  %6 = getelementptr inbounds nuw %"class.cvc5::internal::Minisat::RegionAllocator", ptr %5, i32 0, i32 0
  store ptr null, ptr %6, align 8, !tbaa !221
  %7 = getelementptr inbounds nuw %"class.cvc5::internal::Minisat::RegionAllocator", ptr %5, i32 0, i32 1
  store i32 0, ptr %7, align 8, !tbaa !653
  %8 = getelementptr inbounds nuw %"class.cvc5::internal::Minisat::RegionAllocator", ptr %5, i32 0, i32 2
  store i32 0, ptr %8, align 4, !tbaa !714
  %9 = getelementptr inbounds nuw %"class.cvc5::internal::Minisat::RegionAllocator", ptr %5, i32 0, i32 3
  store i32 0, ptr %9, align 8, !tbaa !654
  %10 = load i32, ptr %4, align 4, !tbaa !37
  call void @_ZN4cvc58internal7Minisat15RegionAllocatorIjE8capacityEj(ptr noundef nonnull align 8 dereferenceable(20) %5, i32 noundef %10)
  ret void
}

; Function Attrs: mustprogress uwtable
define linkonce_odr hidden void @_ZN4cvc58internal7Minisat15ClauseAllocator6moveToERS2_(ptr noundef nonnull align 8 dereferenceable(21) %0, ptr noundef nonnull align 8 dereferenceable(21) %1) #6 comdat align 2 {
  %3 = alloca ptr, align 8
  %4 = alloca ptr, align 8
  store ptr %0, ptr %3, align 8, !tbaa !181
  store ptr %1, ptr %4, align 8, !tbaa !181
  %5 = load ptr, ptr %3, align 8
  %6 = getelementptr inbounds nuw %"class.cvc5::internal::Minisat::ClauseAllocator", ptr %5, i32 0, i32 1
  %7 = load i8, ptr %6, align 4, !tbaa !205, !range !12, !noundef !13
  %8 = trunc i8 %7 to i1
  %9 = load ptr, ptr %4, align 8, !tbaa !181
  %10 = getelementptr inbounds nuw %"class.cvc5::internal::Minisat::ClauseAllocator", ptr %9, i32 0, i32 1
  %11 = zext i1 %8 to i8
  store i8 %11, ptr %10, align 4, !tbaa !205
  %12 = load ptr, ptr %4, align 8, !tbaa !181
  call void @_ZN4cvc58internal7Minisat15RegionAllocatorIjE6moveToERS3_(ptr noundef nonnull align 8 dereferenceable(20) %5, ptr noundef nonnull align 8 dereferenceable(20) %12)
  ret void
}

; Function Attrs: mustprogress nounwind uwtable
define linkonce_odr hidden void @_ZN4cvc58internal7Minisat15RegionAllocatorIjED2Ev(ptr noundef nonnull align 8 dereferenceable(20) %0) unnamed_addr #4 comdat align 2 {
  %2 = alloca ptr, align 8
  store ptr %0, ptr %2, align 8, !tbaa !219
  %3 = load ptr, ptr %2, align 8
  %4 = getelementptr inbounds nuw %"class.cvc5::internal::Minisat::RegionAllocator", ptr %3, i32 0, i32 0
  %5 = load ptr, ptr %4, align 8, !tbaa !221
  %6 = icmp ne ptr %5, null
  br i1 %6, label %7, label %10

7:                                                ; preds = %1
  %8 = getelementptr inbounds nuw %"class.cvc5::internal::Minisat::RegionAllocator", ptr %3, i32 0, i32 0
  %9 = load ptr, ptr %8, align 8, !tbaa !221
  call void @free(ptr noundef %9) #3
  br label %10

10:                                               ; preds = %7, %1
  ret void
}

; Function Attrs: mustprogress uwtable
define linkonce_odr hidden void @_ZN4cvc58internal7Minisat15ClauseAllocatorC2Ej(ptr noundef nonnull align 8 dereferenceable(21) %0, i32 noundef %1) unnamed_addr #6 comdat align 2 {
  %3 = alloca ptr, align 8
  %4 = alloca i32, align 4
  store ptr %0, ptr %3, align 8, !tbaa !181
  store i32 %1, ptr %4, align 4, !tbaa !37
  %5 = load ptr, ptr %3, align 8
  %6 = load i32, ptr %4, align 4, !tbaa !37
  call void @_ZN4cvc58internal7Minisat15RegionAllocatorIjEC2Ej(ptr noundef nonnull align 8 dereferenceable(20) %5, i32 noundef %6)
  %7 = getelementptr inbounds nuw %"class.cvc5::internal::Minisat::ClauseAllocator", ptr %5, i32 0, i32 1
  store i8 0, ptr %7, align 4, !tbaa !205
  ret void
}

; Function Attrs: mustprogress nounwind uwtable
define linkonce_odr hidden noundef i32 @_ZNK4cvc58internal7Minisat15RegionAllocatorIjE6wastedEv(ptr noundef nonnull align 8 dereferenceable(20) %0) #4 comdat align 2 {
  %2 = alloca ptr, align 8
  store ptr %0, ptr %2, align 8, !tbaa !219
  %3 = load ptr, ptr %2, align 8
  %4 = getelementptr inbounds nuw %"class.cvc5::internal::Minisat::RegionAllocator", ptr %3, i32 0, i32 3
  %5 = load i32, ptr %4, align 8, !tbaa !654
  ret i32 %5
}

; Function Attrs: mustprogress nounwind uwtable
define linkonce_odr hidden noundef i32 @_ZNK4cvc58internal7Minisat15RegionAllocatorIjE4sizeEv(ptr noundef nonnull align 8 dereferenceable(20) %0) #4 comdat align 2 {
  %2 = alloca ptr, align 8
  store ptr %0, ptr %2, align 8, !tbaa !219
  %3 = load ptr, ptr %2, align 8
  %4 = getelementptr inbounds nuw %"class.cvc5::internal::Minisat::RegionAllocator", ptr %3, i32 0, i32 1
  %5 = load i32, ptr %4, align 8, !tbaa !653
  ret i32 %5
}

; Function Attrs: mustprogress uwtable
define hidden void @_ZN4cvc58internal7Minisat6Solver14garbageCollectEv(ptr noundef nonnull align 8 dereferenceable(850) %0) unnamed_addr #6 align 2 personality ptr @__gxx_personality_v0 {
  %2 = alloca ptr, align 8
  %3 = alloca %"class.cvc5::internal::Minisat::ClauseAllocator", align 8
  %4 = alloca ptr, align 8
  %5 = alloca i32, align 4
  store ptr %0, ptr %2, align 8, !tbaa !53
  %6 = load ptr, ptr %2, align 8
  call void @llvm.lifetime.start.p0(i64 24, ptr %3) #3
  %7 = getelementptr inbounds nuw %"class.cvc5::internal::Minisat::Solver", ptr %6, i32 0, i32 76
  %8 = call noundef i32 @_ZNK4cvc58internal7Minisat15RegionAllocatorIjE4sizeEv(ptr noundef nonnull align 8 dereferenceable(20) %7)
  %9 = getelementptr inbounds nuw %"class.cvc5::internal::Minisat::Solver", ptr %6, i32 0, i32 76
  %10 = call noundef i32 @_ZNK4cvc58internal7Minisat15RegionAllocatorIjE6wastedEv(ptr noundef nonnull align 8 dereferenceable(20) %9)
  %11 = sub i32 %8, %10
  call void @_ZN4cvc58internal7Minisat15ClauseAllocatorC2Ej(ptr noundef nonnull align 8 dereferenceable(21) %3, i32 noundef %11)
  invoke void @_ZN4cvc58internal7Minisat6Solver8relocAllERNS1_15ClauseAllocatorE(ptr noundef nonnull align 8 dereferenceable(850) %6, ptr noundef nonnull align 8 dereferenceable(21) %3)
          to label %12 unwind label %26

12:                                               ; preds = %1
  %13 = getelementptr inbounds nuw %"class.cvc5::internal::Minisat::Solver", ptr %6, i32 0, i32 17
  %14 = load i32, ptr %13, align 8, !tbaa !105
  %15 = icmp sge i32 %14, 2
  br i1 %15, label %16, label %30

16:                                               ; preds = %12
  %17 = getelementptr inbounds nuw %"class.cvc5::internal::Minisat::Solver", ptr %6, i32 0, i32 76
  %18 = invoke noundef i32 @_ZNK4cvc58internal7Minisat15RegionAllocatorIjE4sizeEv(ptr noundef nonnull align 8 dereferenceable(20) %17)
          to label %19 unwind label %26

19:                                               ; preds = %16
  %20 = mul i32 %18, 4
  %21 = invoke noundef i32 @_ZNK4cvc58internal7Minisat15RegionAllocatorIjE4sizeEv(ptr noundef nonnull align 8 dereferenceable(20) %3)
          to label %22 unwind label %26

22:                                               ; preds = %19
  %23 = mul i32 %21, 4
  %24 = invoke i32 (ptr, ...) @printf(ptr noundef @.str.119, i32 noundef %20, i32 noundef %23)
          to label %25 unwind label %26

25:                                               ; preds = %22
  br label %30

26:                                               ; preds = %30, %22, %19, %16, %1
  %27 = landingpad { ptr, i32 }
          cleanup
  %28 = extractvalue { ptr, i32 } %27, 0
  store ptr %28, ptr %4, align 8
  %29 = extractvalue { ptr, i32 } %27, 1
  store i32 %29, ptr %5, align 4
  call void @_ZN4cvc58internal7Minisat15RegionAllocatorIjED2Ev(ptr noundef nonnull align 8 dereferenceable(21) %3) #3
  call void @llvm.lifetime.end.p0(i64 24, ptr %3) #3
  br label %33

30:                                               ; preds = %25, %12
  %31 = getelementptr inbounds nuw %"class.cvc5::internal::Minisat::Solver", ptr %6, i32 0, i32 76
  invoke void @_ZN4cvc58internal7Minisat15ClauseAllocator6moveToERS2_(ptr noundef nonnull align 8 dereferenceable(21) %3, ptr noundef nonnull align 8 dereferenceable(21) %31)
          to label %32 unwind label %26

32:                                               ; preds = %30
  call void @_ZN4cvc58internal7Minisat15RegionAllocatorIjED2Ev(ptr noundef nonnull align 8 dereferenceable(21) %3) #3
  call void @llvm.lifetime.end.p0(i64 24, ptr %3) #3
  ret void

33:                                               ; preds = %26
  %34 = load ptr, ptr %4, align 8
  %35 = load i32, ptr %5, align 4
  %36 = insertvalue { ptr, i32 } poison, ptr %34, 0
  %37 = insertvalue { ptr, i32 } %36, i32 %35, 1
  resume { ptr, i32 } %37
}