; Function Attrs: mustprogress uwtable
define hidden void @_ZN4cvc58internal7Minisat6Solver14garbageCollectEv(ptr noundef nonnull align 8 dereferenceable(850) %0) unnamed_addr #5 align 2 personality ptr @__gxx_personality_v0 {
  %2 = alloca %"class.cvc5::internal::Minisat::ClauseAllocator", align 8
  call void @llvm.lifetime.start.p0(i64 24, ptr nonnull %2) #34
  %3 = getelementptr inbounds nuw i8, ptr %0, i64 704
  %4 = getelementptr inbounds nuw i8, ptr %0, i64 712
  %5 = load i32, ptr %4, align 8, !tbaa !367
  %6 = getelementptr inbounds nuw i8, ptr %0, i64 720
  %7 = load i32, ptr %6, align 8, !tbaa !393
  %8 = sub i32 %5, %7
  call void @llvm.memset.p0.i64(ptr noundef nonnull align 8 dereferenceable(21) %2, i8 0, i64 20, i1 false)
  call void @_ZN4cvc58internal7Minisat15RegionAllocatorIjE8capacityEj(ptr noundef nonnull align 8 dereferenceable(21) %2, i32 noundef %8)
  %9 = getelementptr inbounds nuw i8, ptr %2, i64 20
  store i8 0, ptr %9, align 4, !tbaa !85
  invoke void @_ZN4cvc58internal7Minisat6Solver8relocAllERNS1_15ClauseAllocatorE(ptr noundef nonnull align 8 dereferenceable(850) %0, ptr noundef nonnull align 8 dereferenceable(21) %2)
          to label %10 unwind label %21

10:                                               ; preds = %1
  %11 = getelementptr inbounds nuw i8, ptr %0, i64 136
  %12 = load i32, ptr %11, align 8, !tbaa !458
  %13 = icmp sgt i32 %12, 1
  br i1 %13, label %14, label %25

14:                                               ; preds = %10
  %15 = load i32, ptr %4, align 8, !tbaa !367
  %16 = shl i32 %15, 2
  %17 = getelementptr inbounds nuw i8, ptr %2, i64 8
  %18 = load i32, ptr %17, align 8, !tbaa !367
  %19 = shl i32 %18, 2
  %20 = call i32 (ptr, ...) @printf(ptr noundef nonnull dereferenceable(1) @.str.119, i32 noundef %16, i32 noundef %19)
  br label %25

21:                                               ; preds = %1
  %22 = landingpad { ptr, i32 }
          cleanup
  %23 = load ptr, ptr %2, align 8, !tbaa !105
  %.not.i = icmp eq ptr %23, null
  br i1 %.not.i, label %_ZN4cvc58internal7Minisat15RegionAllocatorIjED2Ev.exit, label %24

24:                                               ; preds = %21
  call void @free(ptr noundef nonnull %23) #34
  br label %_ZN4cvc58internal7Minisat15RegionAllocatorIjED2Ev.exit

_ZN4cvc58internal7Minisat15RegionAllocatorIjED2Ev.exit: ; preds = %21, %24
  call void @llvm.lifetime.end.p0(i64 24, ptr nonnull %2) #34
  resume { ptr, i32 } %22

25:                                               ; preds = %14, %10
  %26 = load i8, ptr %9, align 4, !tbaa !85, !range !63, !noundef !64
  %27 = getelementptr inbounds nuw i8, ptr %0, i64 724
  store i8 %26, ptr %27, align 4, !tbaa !85
  %28 = load ptr, ptr %3, align 8, !tbaa !105
  %.not.i.i = icmp eq ptr %28, null
  br i1 %.not.i.i, label %_ZN4cvc58internal7Minisat15RegionAllocatorIjED2Ev.exit3, label %29

29:                                               ; preds = %25
  call void @free(ptr noundef nonnull %28) #34
  br label %_ZN4cvc58internal7Minisat15RegionAllocatorIjED2Ev.exit3

_ZN4cvc58internal7Minisat15RegionAllocatorIjED2Ev.exit3: ; preds = %25, %29
  %30 = load ptr, ptr %2, align 8, !tbaa !105
  store ptr %30, ptr %3, align 8, !tbaa !105
  %31 = getelementptr inbounds nuw i8, ptr %2, i64 8
  %32 = load i32, ptr %31, align 8, !tbaa !367
  store i32 %32, ptr %4, align 8, !tbaa !367
  %33 = getelementptr inbounds nuw i8, ptr %2, i64 12
  %34 = load i32, ptr %33, align 4, !tbaa !478
  %35 = getelementptr inbounds nuw i8, ptr %0, i64 716
  store i32 %34, ptr %35, align 4, !tbaa !478
  %36 = getelementptr inbounds nuw i8, ptr %2, i64 16
  %37 = load i32, ptr %36, align 8, !tbaa !393
  store i32 %37, ptr %6, align 8, !tbaa !393
  call void @llvm.lifetime.end.p0(i64 24, ptr nonnull %2) #34
  ret void
}